target datalayout = "e-m:e-p270:32:32-p271:32:32-p272:64:64-i64:64-i128:128-f80:128-n8:16:32:64-S128"
target triple = "x86_64-pc-linux-gnu"

%struct.AVCodecContext = type { ptr, i32, i32, ptr, i32, i32, ptr, ptr, ptr, i64, i32, i32, ptr, i32, %struct.AVRational, %struct.AVRational, %struct.AVRational, i32, i32, i32, i32, i32, %struct.AVRational, i32, i32, i32, i32, i32, i32, i32, i32, i32, i32, i32, ptr, ptr, i32, float, float, float, float, float, float, float, float, float, i32, i32, i32, i32, i32, i32, i32, i32, i32, i32, i32, i32, ptr, ptr, ptr, i32, i32, i32, i32, i32, i32, i32, i32, i32, i32, %struct.AVChannelLayout, i32, i32, i32, i32, i32, i32, i32, i32, ptr, i32, i32, i32, float, float, i32, i32, i32, i32, i32, ptr, i64, i64, float, float, i32, i32, ptr, ptr, i32, i32, i32, i32, i32, ptr, ptr, ptr, ptr, i32, i32, [8 x i64], i32, i32, i32, i32, i32, i32, i32, ptr, ptr, i32, i32, i32, i32, i32, i32, i32, i32, i32, i32, ptr, ptr, i32, i32, ptr, ptr, ptr, ptr, i32, i32, i64, i32, i32, i64, ptr, i64, ptr, i32, ptr, i32 }
%struct.AVRational = type { i32, i32 }
%struct.AVChannelLayout = type { i32, i32, %union.anon.0, ptr }
%union.anon.0 = type { i64 }
%struct.MSS3Context = type { ptr, ptr, i32, %struct.RangeCoder, [3 x %struct.BlockTypeContext], [3 x %struct.FillBlockCoder], [3 x %struct.ImageBlockCoder], [3 x %struct.DCTBlockCoder], [3 x %struct.HaarBlockCoder], [64 x i32], [256 x i32] }
%struct.RangeCoder = type { ptr, ptr, i32, i32, i32 }
%struct.BlockTypeContext = type { i32, [5 x %struct.Model] }
%struct.Model = type { [16 x i32], [16 x i32], i32, i32, i32, i32, i32 }
%struct.FillBlockCoder = type { i32, %struct.Model }
%struct.ImageBlockCoder = type { %struct.Model256, %struct.Model256, %struct.Model, [125 x %struct.Model] }
%struct.Model256 = type { [256 x i32], [256 x i32], i32, [68 x i32], i32, i32, i32, i32 }
%struct.DCTBlockCoder = type { ptr, i64, i32, i32, [64 x i16], %struct.Model, %struct.Model2, %struct.Model256 }
%struct.Model2 = type { i32, i32, i32, i32, i32, i32 }
%struct.HaarBlockCoder = type { i32, i32, %struct.Model256, %struct.Model }

@.str.2 = private unnamed_addr constant [46 x i8] c"Image dimensions should be a multiple of 16.\0A\00", align 1
@.str.3 = private unnamed_addr constant [24 x i8] c"Cannot allocate buffer\0A\00", align 1

; Function Attrs: cold nounwind optsize uwtable
define internal i32 @mss3_decode_init(ptr noundef %0) #0 {
  %2 = alloca i32, align 4
  %3 = alloca ptr, align 8
  %4 = alloca ptr, align 8
  %5 = alloca i32, align 4
  %6 = alloca i32, align 4
  %7 = alloca i32, align 4
  %8 = alloca i32, align 4
  store ptr %0, ptr %3, align 8, !tbaa !4
  call void @llvm.lifetime.start.p0(i64 8, ptr %4) #8
  %9 = load ptr, ptr %3, align 8, !tbaa !4
  %10 = getelementptr inbounds nuw %struct.AVCodecContext, ptr %9, i32 0, i32 6
  %11 = load ptr, ptr %10, align 8, !tbaa !9
  store ptr %11, ptr %4, align 8, !tbaa !29
  call void @llvm.lifetime.start.p0(i64 4, ptr %5) #8
  %12 = load ptr, ptr %3, align 8, !tbaa !4
  %13 = load ptr, ptr %4, align 8, !tbaa !29
  %14 = getelementptr inbounds nuw %struct.MSS3Context, ptr %13, i32 0, i32 0
  store ptr %12, ptr %14, align 8, !tbaa !31
  %15 = load ptr, ptr %3, align 8, !tbaa !4
  %16 = getelementptr inbounds nuw %struct.AVCodecContext, ptr %15, i32 0, i32 18
  %17 = load i32, ptr %16, align 8, !tbaa !35
  %18 = and i32 %17, 15
  %19 = icmp ne i32 %18, 0
  br i1 %19, label %26, label %20

20:                                               ; preds = %1
  %21 = load ptr, ptr %3, align 8, !tbaa !4
  %22 = getelementptr inbounds nuw %struct.AVCodecContext, ptr %21, i32 0, i32 19
  %23 = load i32, ptr %22, align 4, !tbaa !36
  %24 = and i32 %23, 15
  %25 = icmp ne i32 %24, 0
  br i1 %25, label %26, label %28

26:                                               ; preds = %20, %1
  %27 = load ptr, ptr %3, align 8, !tbaa !4
  call void (ptr, i32, ptr, ...) @av_log(ptr noundef %27, i32 noundef 16, ptr noundef @.str.2)
  store i32 -1094995529, ptr %2, align 4
  store i32 1, ptr %6, align 4
  br label %113

28:                                               ; preds = %20
  %29 = load ptr, ptr %4, align 8, !tbaa !29
  %30 = getelementptr inbounds nuw %struct.MSS3Context, ptr %29, i32 0, i32 2
  store i32 0, ptr %30, align 8, !tbaa !37
  store i32 0, ptr %5, align 4, !tbaa !38
  br label %31

31:                                               ; preds = %97, %28
  %32 = load i32, ptr %5, align 4, !tbaa !38
  %33 = icmp slt i32 %32, 3
  br i1 %33, label %34, label %100

34:                                               ; preds = %31
  call void @llvm.lifetime.start.p0(i64 4, ptr %7) #8
  %35 = load ptr, ptr %3, align 8, !tbaa !4
  %36 = getelementptr inbounds nuw %struct.AVCodecContext, ptr %35, i32 0, i32 18
  %37 = load i32, ptr %36, align 8, !tbaa !35
  %38 = load i32, ptr %5, align 4, !tbaa !38
  %39 = icmp ne i32 %38, 0
  %40 = xor i1 %39, true
  %41 = xor i1 %40, true
  %42 = zext i1 %41 to i32
  %43 = add nsw i32 2, %42
  %44 = ashr i32 %37, %43
  store i32 %44, ptr %7, align 4, !tbaa !38
  call void @llvm.lifetime.start.p0(i64 4, ptr %8) #8
  %45 = load ptr, ptr %3, align 8, !tbaa !4
  %46 = getelementptr inbounds nuw %struct.AVCodecContext, ptr %45, i32 0, i32 19
  %47 = load i32, ptr %46, align 4, !tbaa !36
  %48 = load i32, ptr %5, align 4, !tbaa !38
  %49 = icmp ne i32 %48, 0
  %50 = xor i1 %49, true
  %51 = xor i1 %50, true
  %52 = zext i1 %51 to i32
  %53 = add nsw i32 2, %52
  %54 = ashr i32 %47, %53
  store i32 %54, ptr %8, align 4, !tbaa !38
  %55 = load i32, ptr %7, align 4, !tbaa !38
  %56 = sext i32 %55 to i64
  %57 = load ptr, ptr %4, align 8, !tbaa !29
  %58 = getelementptr inbounds nuw %struct.MSS3Context, ptr %57, i32 0, i32 7
  %59 = load i32, ptr %5, align 4, !tbaa !38
  %60 = sext i32 %59 to i64
  %61 = getelementptr inbounds [3 x %struct.DCTBlockCoder], ptr %58, i64 0, i64 %60
  %62 = getelementptr inbounds nuw %struct.DCTBlockCoder, ptr %61, i32 0, i32 1
  store i64 %56, ptr %62, align 8, !tbaa !39
  %63 = load i32, ptr %8, align 4, !tbaa !38
  %64 = load ptr, ptr %4, align 8, !tbaa !29
  %65 = getelementptr inbounds nuw %struct.MSS3Context, ptr %64, i32 0, i32 7
  %66 = load i32, ptr %5, align 4, !tbaa !38
  %67 = sext i32 %66 to i64
  %68 = getelementptr inbounds [3 x %struct.DCTBlockCoder], ptr %65, i64 0, i64 %67
  %69 = getelementptr inbounds nuw %struct.DCTBlockCoder, ptr %68, i32 0, i32 2
  store i32 %63, ptr %69, align 8, !tbaa !44
  %70 = load i32, ptr %7, align 4, !tbaa !38
  %71 = sext i32 %70 to i64
  %72 = mul i64 4, %71
  %73 = load i32, ptr %8, align 4, !tbaa !38
  %74 = sext i32 %73 to i64
  %75 = mul i64 %72, %74
  %76 = call noalias ptr @av_malloc(i64 noundef %75)
  %77 = load ptr, ptr %4, align 8, !tbaa !29
  %78 = getelementptr inbounds nuw %struct.MSS3Context, ptr %77, i32 0, i32 7
  %79 = load i32, ptr %5, align 4, !tbaa !38
  %80 = sext i32 %79 to i64
  %81 = getelementptr inbounds [3 x %struct.DCTBlockCoder], ptr %78, i64 0, i64 %80
  %82 = getelementptr inbounds nuw %struct.DCTBlockCoder, ptr %81, i32 0, i32 0
  store ptr %76, ptr %82, align 8, !tbaa !45
  %83 = load ptr, ptr %4, align 8, !tbaa !29
  %84 = getelementptr inbounds nuw %struct.MSS3Context, ptr %83, i32 0, i32 7
  %85 = load i32, ptr %5, align 4, !tbaa !38
  %86 = sext i32 %85 to i64
  %87 = getelementptr inbounds [3 x %struct.DCTBlockCoder], ptr %84, i64 0, i64 %86
  %88 = getelementptr inbounds nuw %struct.DCTBlockCoder, ptr %87, i32 0, i32 0
  %89 = load ptr, ptr %88, align 8, !tbaa !45
  %90 = icmp ne ptr %89, null
  br i1 %90, label %93, label %91

91:                                               ; preds = %34
  %92 = load ptr, ptr %3, align 8, !tbaa !4
  call void (ptr, i32, ptr, ...) @av_log(ptr noundef %92, i32 noundef 16, ptr noundef @.str.3)
  store i32 -12, ptr %2, align 4
  store i32 1, ptr %6, align 4
  br label %94

93:                                               ; preds = %34
  store i32 0, ptr %6, align 4
  br label %94

94:                                               ; preds = %93, %91
  call void @llvm.lifetime.end.p0(i64 4, ptr %8) #8
  call void @llvm.lifetime.end.p0(i64 4, ptr %7) #8
  %95 = load i32, ptr %6, align 4
  switch i32 %95, label %113 [
    i32 0, label %96
  ]

96:                                               ; preds = %94
  br label %97

97:                                               ; preds = %96
  %98 = load i32, ptr %5, align 4, !tbaa !38
  %99 = add nsw i32 %98, 1
  store i32 %99, ptr %5, align 4, !tbaa !38
  br label %31, !llvm.loop !46

100:                                              ; preds = %31
  %101 = call ptr @av_frame_alloc()
  %102 = load ptr, ptr %4, align 8, !tbaa !29
  %103 = getelementptr inbounds nuw %struct.MSS3Context, ptr %102, i32 0, i32 1
  store ptr %101, ptr %103, align 8, !tbaa !48
  %104 = load ptr, ptr %4, align 8, !tbaa !29
  %105 = getelementptr inbounds nuw %struct.MSS3Context, ptr %104, i32 0, i32 1
  %106 = load ptr, ptr %105, align 8, !tbaa !48
  %107 = icmp ne ptr %106, null
  br i1 %107, label %109, label %108

108:                                              ; preds = %100
  store i32 -12, ptr %2, align 4
  store i32 1, ptr %6, align 4
  br label %113

109:                                              ; preds = %100
  %110 = load ptr, ptr %3, align 8, !tbaa !4
  %111 = getelementptr inbounds nuw %struct.AVCodecContext, ptr %110, i32 0, i32 23
  store i32 0, ptr %111, align 8, !tbaa !49
  %112 = load ptr, ptr %4, align 8, !tbaa !29
  call void @init_coders(ptr noundef %112) #9
  store i32 0, ptr %2, align 4
  store i32 1, ptr %6, align 4
  br label %113

113:                                              ; preds = %109, %108, %94, %26
  call void @llvm.lifetime.end.p0(i64 4, ptr %5) #8
  call void @llvm.lifetime.end.p0(i64 8, ptr %4) #8
  %114 = load i32, ptr %2, align 4
  ret i32 %114
}