; Function Attrs: cold nounwind optsize uwtable
define internal range(i32 -1094995529, 1) i32 @mss3_decode_init(ptr noundef %0) #0 {
  %2 = getelementptr inbounds nuw i8, ptr %0, i64 32
  %3 = load ptr, ptr %2, align 8, !tbaa !4
  store ptr %0, ptr %3, align 8, !tbaa !27
  %4 = getelementptr inbounds nuw i8, ptr %0, i64 112
  %5 = load i32, ptr %4, align 8, !tbaa !32
  %6 = and i32 %5, 15
  %.not = icmp eq i32 %6, 0
  br i1 %.not, label %7, label %11

7:                                                ; preds = %1
  %8 = getelementptr inbounds nuw i8, ptr %0, i64 116
  %9 = load i32, ptr %8, align 4, !tbaa !33
  %10 = and i32 %9, 15
  %.not33 = icmp eq i32 %10, 0
  br i1 %.not33, label %12, label %11

11:                                               ; preds = %7, %1
  tail call void (ptr, i32, ptr, ...) @av_log(ptr noundef nonnull %0, i32 noundef 16, ptr noundef nonnull @.str.2) #9
  br label %35

12:                                               ; preds = %7
  %13 = getelementptr inbounds nuw i8, ptr %3, i64 16
  store i32 0, ptr %13, align 8, !tbaa !34
  %14 = getelementptr inbounds nuw i8, ptr %3, i64 72728
  br label %.critedge

15:                                               ; preds = %.critedge
  %indvars.iv.next = add nuw nsw i64 %indvars.iv, 1
  %exitcond.not = icmp eq i64 %indvars.iv.next, 3
  br i1 %exitcond.not, label %30, label %.critedge, !llvm.loop !35

.critedge:                                        ; preds = %12, %15
  %indvars.iv = phi i64 [ 0, %12 ], [ %indvars.iv.next, %15 ]
  %16 = load i32, ptr %4, align 8, !tbaa !32
  %.not35 = icmp eq i64 %indvars.iv, 0
  %17 = select i1 %.not35, i32 2, i32 3
  %18 = ashr i32 %16, %17
  %19 = load i32, ptr %8, align 4, !tbaa !33
  %20 = ashr i32 %19, %17
  %21 = sext i32 %18 to i64
  %22 = getelementptr inbounds nuw [3 x %struct.DCTBlockCoder], ptr %14, i64 0, i64 %indvars.iv
  %23 = getelementptr inbounds nuw i8, ptr %22, i64 8
  store i64 %21, ptr %23, align 8, !tbaa !37
  %24 = getelementptr inbounds nuw i8, ptr %22, i64 16
  store i32 %20, ptr %24, align 8, !tbaa !42
  %25 = shl nsw i64 %21, 2
  %26 = sext i32 %20 to i64
  %27 = mul nsw i64 %25, %26
  %28 = tail call noalias ptr @av_malloc(i64 noundef %27) #9
  store ptr %28, ptr %22, align 8, !tbaa !43
  %.not36.not = icmp eq ptr %28, null
  br i1 %.not36.not, label %29, label %15

29:                                               ; preds = %.critedge
  tail call void (ptr, i32, ptr, ...) @av_log(ptr noundef nonnull %0, i32 noundef 16, ptr noundef nonnull @.str.3) #9
  br label %35

30:                                               ; preds = %15
  %31 = tail call ptr @av_frame_alloc() #9
  %32 = getelementptr inbounds nuw i8, ptr %3, i64 8
  store ptr %31, ptr %32, align 8, !tbaa !44
  %.not34 = icmp eq ptr %31, null
  br i1 %.not34, label %35, label %33

33:                                               ; preds = %30
  %34 = getelementptr inbounds nuw i8, ptr %0, i64 136
  store i32 0, ptr %34, align 8, !tbaa !45
  tail call fastcc void @init_coders(ptr noundef nonnull %3) #10
  br label %35

35:                                               ; preds = %29, %30, %33, %11
  %.0 = phi i32 [ -1094995529, %11 ], [ -12, %29 ], [ 0, %33 ], [ -12, %30 ]
  ret i32 %.0
}